target datalayout = "e-m:e-p270:32:32-p271:32:32-p272:64:64-i64:64-i128:128-f80:128-n8:16:32:64-S128"
target triple = "x86_64-pc-linux-gnu"

%"struct.cv::UMatData" = type { ptr, ptr, i32, i32, ptr, ptr, i64, i32, ptr, ptr, i32, i32, ptr, %"class.std::shared_ptr" }
%"class.std::shared_ptr" = type { %"class.std::__shared_ptr" }
%"class.std::__shared_ptr" = type { ptr, %"class.std::__shared_count" }
%"class.std::__shared_count" = type { ptr }
%"class.cv::Mat" = type { i32, i32, i32, i32, ptr, ptr, ptr, ptr, ptr, ptr, %"struct.cv::MatSize", %"struct.cv::MatStep" }
%"struct.cv::MatSize" = type { ptr }
%"struct.cv::MatStep" = type { ptr, [2 x i64] }

; Function Attrs: inlinehint mustprogress nounwind uwtable
define linkonce_odr hidden noundef nonnull align 4 dereferenceable(4) ptr @_ZN2cv7MatSizeixEi(ptr noundef nonnull align 8 dereferenceable(8) %0, i32 noundef %1) #6 comdat align 2 {
  %3 = alloca ptr, align 8
  %4 = alloca i32, align 4
  store ptr %0, ptr %3, align 8, !tbaa !65
  store i32 %1, ptr %4, align 4, !tbaa !26
  %5 = load ptr, ptr %3, align 8
  %6 = getelementptr inbounds nuw %"struct.cv::MatSize", ptr %5, i32 0, i32 0
  %7 = load ptr, ptr %6, align 8, !tbaa !67
  %8 = load i32, ptr %4, align 4, !tbaa !26
  %9 = sext i32 %8 to i64
  %10 = getelementptr inbounds i32, ptr %7, i64 %9
  ret ptr %10
}

; Function Attrs: inlinehint mustprogress nounwind uwtable
define linkonce_odr hidden noundef nonnull align 4 dereferenceable(4) ptr @_ZNK2cv7MatSizeixEi(ptr noundef nonnull align 8 dereferenceable(8) %0, i32 noundef %1) #6 comdat align 2 {
  %3 = alloca ptr, align 8
  %4 = alloca i32, align 4
  store ptr %0, ptr %3, align 8, !tbaa !65
  store i32 %1, ptr %4, align 4, !tbaa !26
  %5 = load ptr, ptr %3, align 8
  %6 = getelementptr inbounds nuw %"struct.cv::MatSize", ptr %5, i32 0, i32 0
  %7 = load ptr, ptr %6, align 8, !tbaa !67
  %8 = load i32, ptr %4, align 4, !tbaa !26
  %9 = sext i32 %8 to i64
  %10 = getelementptr inbounds i32, ptr %7, i64 %9
  ret ptr %10
}

; Function Attrs: mustprogress uwtable
define void @_ZN2cv3Mat8copySizeERKS0_(ptr noundef nonnull align 8 dereferenceable(96) %0, ptr noundef nonnull align 8 dereferenceable(96) %1) #1 align 2 {
  %3 = alloca ptr, align 8
  %4 = alloca ptr, align 8
  %5 = alloca i32, align 4
  store ptr %0, ptr %3, align 8, !tbaa !34
  store ptr %1, ptr %4, align 8, !tbaa !34
  %6 = load ptr, ptr %3, align 8
  %7 = load ptr, ptr %4, align 8, !tbaa !34
  %8 = getelementptr inbounds nuw %"class.cv::Mat", ptr %7, i32 0, i32 1
  %9 = load i32, ptr %8, align 4, !tbaa !72
  call void @_ZN2cv7setSizeERNS_3MatEiPKiPKmb(ptr noundef nonnull align 8 dereferenceable(96) %6, i32 noundef %9, ptr noundef null, ptr noundef null, i1 noundef zeroext false)
  call void @llvm.lifetime.start.p0(i64 4, ptr %5) #7
  store i32 0, ptr %5, align 4, !tbaa !26
  br label %10

10:                                               ; preds = %33, %2
  %11 = load i32, ptr %5, align 4, !tbaa !26
  %12 = getelementptr inbounds nuw %"class.cv::Mat", ptr %6, i32 0, i32 1
  %13 = load i32, ptr %12, align 4, !tbaa !72
  %14 = icmp slt i32 %11, %13
  br i1 %14, label %16, label %15

15:                                               ; preds = %10
  call void @llvm.lifetime.end.p0(i64 4, ptr %5) #7
  br label %36

16:                                               ; preds = %10
  %17 = load ptr, ptr %4, align 8, !tbaa !34
  %18 = getelementptr inbounds nuw %"class.cv::Mat", ptr %17, i32 0, i32 10
  %19 = load i32, ptr %5, align 4, !tbaa !26
  %20 = call noundef nonnull align 4 dereferenceable(4) ptr @_ZNK2cv7MatSizeixEi(ptr noundef nonnull align 8 dereferenceable(8) %18, i32 noundef %19)
  %21 = load i32, ptr %20, align 4, !tbaa !26
  %22 = getelementptr inbounds nuw %"class.cv::Mat", ptr %6, i32 0, i32 10
  %23 = load i32, ptr %5, align 4, !tbaa !26
  %24 = call noundef nonnull align 4 dereferenceable(4) ptr @_ZN2cv7MatSizeixEi(ptr noundef nonnull align 8 dereferenceable(8) %22, i32 noundef %23)
  store i32 %21, ptr %24, align 4, !tbaa !26
  %25 = load ptr, ptr %4, align 8, !tbaa !34
  %26 = getelementptr inbounds nuw %"class.cv::Mat", ptr %25, i32 0, i32 11
  %27 = load i32, ptr %5, align 4, !tbaa !26
  %28 = call noundef nonnull align 8 dereferenceable(8) ptr @_ZNK2cv7MatStepixEi(ptr noundef nonnull align 8 dereferenceable(24) %26, i32 noundef %27) #7
  %29 = load i64, ptr %28, align 8, !tbaa !31
  %30 = getelementptr inbounds nuw %"class.cv::Mat", ptr %6, i32 0, i32 11
  %31 = load i32, ptr %5, align 4, !tbaa !26
  %32 = call noundef nonnull align 8 dereferenceable(8) ptr @_ZN2cv7MatStepixEi(ptr noundef nonnull align 8 dereferenceable(24) %30, i32 noundef %31) #7
  store i64 %29, ptr %32, align 8, !tbaa !31
  br label %33

33:                                               ; preds = %16
  %34 = load i32, ptr %5, align 4, !tbaa !26
  %35 = add nsw i32 %34, 1
  store i32 %35, ptr %5, align 4, !tbaa !26
  br label %10, !llvm.loop !104

36:                                               ; preds = %15
  ret void
}

; Function Attrs: inlinehint mustprogress nounwind uwtable
define linkonce_odr hidden noundef nonnull align 8 dereferenceable(8) ptr @_ZN2cv7MatStepixEi(ptr noundef nonnull align 8 dereferenceable(24) %0, i32 noundef %1) #6 comdat align 2 {
  %3 = alloca ptr, align 8
  %4 = alloca i32, align 4
  store ptr %0, ptr %3, align 8, !tbaa !83
  store i32 %1, ptr %4, align 4, !tbaa !26
  %5 = load ptr, ptr %3, align 8
  %6 = getelementptr inbounds nuw %"struct.cv::MatStep", ptr %5, i32 0, i32 0
  %7 = load ptr, ptr %6, align 8, !tbaa !85
  %8 = load i32, ptr %4, align 4, !tbaa !26
  %9 = sext i32 %8 to i64
  %10 = getelementptr inbounds i64, ptr %7, i64 %9
  ret ptr %10
}

; Function Attrs: inlinehint mustprogress nounwind uwtable
define linkonce_odr hidden noundef nonnull align 8 dereferenceable(8) ptr @_ZNK2cv7MatStepixEi(ptr noundef nonnull align 8 dereferenceable(24) %0, i32 noundef %1) #6 comdat align 2 {
  %3 = alloca ptr, align 8
  %4 = alloca i32, align 4
  store ptr %0, ptr %3, align 8, !tbaa !83
  store i32 %1, ptr %4, align 4, !tbaa !26
  %5 = load ptr, ptr %3, align 8
  %6 = getelementptr inbounds nuw %"struct.cv::MatStep", ptr %5, i32 0, i32 0
  %7 = load ptr, ptr %6, align 8, !tbaa !85
  %8 = load i32, ptr %4, align 4, !tbaa !26
  %9 = sext i32 %8 to i64
  %10 = getelementptr inbounds i64, ptr %7, i64 %9
  ret ptr %10
}

; Function Attrs: mustprogress uwtable
define noundef nonnull align 8 dereferenceable(96) ptr @_ZN2cv3MataSERKS0_(ptr noundef nonnull align 8 dereferenceable(96) %0, ptr noundef nonnull align 8 dereferenceable(96) %1) #1 align 2 {
  %3 = alloca ptr, align 8
  %4 = alloca ptr, align 8
  %5 = alloca i32, align 4
  %6 = alloca i32, align 4
  store ptr %0, ptr %3, align 8, !tbaa !34
  store ptr %1, ptr %4, align 8, !tbaa !34
  %7 = load ptr, ptr %3, align 8
  %8 = load ptr, ptr %4, align 8, !tbaa !34
  %9 = icmp ne ptr %7, %8
  br i1 %9, label %10, label %87

10:                                               ; preds = %2
  %11 = load ptr, ptr %4, align 8, !tbaa !34
  %12 = getelementptr inbounds nuw %"class.cv::Mat", ptr %11, i32 0, i32 9
  %13 = load ptr, ptr %12, align 8, !tbaa !88
  %14 = icmp ne ptr %13, null
  br i1 %14, label %15, label %22

15:                                               ; preds = %10
  %16 = load ptr, ptr %4, align 8, !tbaa !34
  %17 = getelementptr inbounds nuw %"class.cv::Mat", ptr %16, i32 0, i32 9
  %18 = load ptr, ptr %17, align 8, !tbaa !88
  %19 = getelementptr inbounds nuw %"struct.cv::UMatData", ptr %18, i32 0, i32 3
  store i32 1, ptr %5, align 4, !tbaa !26
  %20 = load i32, ptr %5, align 4
  %21 = atomicrmw add ptr %19, i32 %20 acq_rel, align 4
  store i32 %21, ptr %6, align 4
  br label %22

22:                                               ; preds = %15, %10
  call void @_ZN2cv3Mat7releaseEv(ptr noundef nonnull align 8 dereferenceable(96) %7)
  %23 = load ptr, ptr %4, align 8, !tbaa !34
  %24 = getelementptr inbounds nuw %"class.cv::Mat", ptr %23, i32 0, i32 0
  %25 = load i32, ptr %24, align 8, !tbaa !79
  %26 = getelementptr inbounds nuw %"class.cv::Mat", ptr %7, i32 0, i32 0
  store i32 %25, ptr %26, align 8, !tbaa !79
  %27 = getelementptr inbounds nuw %"class.cv::Mat", ptr %7, i32 0, i32 1
  %28 = load i32, ptr %27, align 4, !tbaa !72
  %29 = icmp sle i32 %28, 2
  br i1 %29, label %30, label %60

30:                                               ; preds = %22
  %31 = load ptr, ptr %4, align 8, !tbaa !34
  %32 = getelementptr inbounds nuw %"class.cv::Mat", ptr %31, i32 0, i32 1
  %33 = load i32, ptr %32, align 4, !tbaa !72
  %34 = icmp sle i32 %33, 2
  br i1 %34, label %35, label %60

35:                                               ; preds = %30
  %36 = load ptr, ptr %4, align 8, !tbaa !34
  %37 = getelementptr inbounds nuw %"class.cv::Mat", ptr %36, i32 0, i32 1
  %38 = load i32, ptr %37, align 4, !tbaa !72
  %39 = getelementptr inbounds nuw %"class.cv::Mat", ptr %7, i32 0, i32 1
  store i32 %38, ptr %39, align 4, !tbaa !72
  %40 = load ptr, ptr %4, align 8, !tbaa !34
  %41 = getelementptr inbounds nuw %"class.cv::Mat", ptr %40, i32 0, i32 2
  %42 = load i32, ptr %41, align 8, !tbaa !78
  %43 = getelementptr inbounds nuw %"class.cv::Mat", ptr %7, i32 0, i32 2
  store i32 %42, ptr %43, align 8, !tbaa !78
  %44 = load ptr, ptr %4, align 8, !tbaa !34
  %45 = getelementptr inbounds nuw %"class.cv::Mat", ptr %44, i32 0, i32 3
  %46 = load i32, ptr %45, align 4, !tbaa !77
  %47 = getelementptr inbounds nuw %"class.cv::Mat", ptr %7, i32 0, i32 3
  store i32 %46, ptr %47, align 4, !tbaa !77
  %48 = load ptr, ptr %4, align 8, !tbaa !34
  %49 = getelementptr inbounds nuw %"class.cv::Mat", ptr %48, i32 0, i32 11
  %50 = call noundef nonnull align 8 dereferenceable(8) ptr @_ZNK2cv7MatStepixEi(ptr noundef nonnull align 8 dereferenceable(24) %49, i32 noundef 0) #7
  %51 = load i64, ptr %50, align 8, !tbaa !31
  %52 = getelementptr inbounds nuw %"class.cv::Mat", ptr %7, i32 0, i32 11
  %53 = call noundef nonnull align 8 dereferenceable(8) ptr @_ZN2cv7MatStepixEi(ptr noundef nonnull align 8 dereferenceable(24) %52, i32 noundef 0) #7
  store i64 %51, ptr %53, align 8, !tbaa !31
  %54 = load ptr, ptr %4, align 8, !tbaa !34
  %55 = getelementptr inbounds nuw %"class.cv::Mat", ptr %54, i32 0, i32 11
  %56 = call noundef nonnull align 8 dereferenceable(8) ptr @_ZNK2cv7MatStepixEi(ptr noundef nonnull align 8 dereferenceable(24) %55, i32 noundef 1) #7
  %57 = load i64, ptr %56, align 8, !tbaa !31
  %58 = getelementptr inbounds nuw %"class.cv::Mat", ptr %7, i32 0, i32 11
  %59 = call noundef nonnull align 8 dereferenceable(8) ptr @_ZN2cv7MatStepixEi(ptr noundef nonnull align 8 dereferenceable(24) %58, i32 noundef 1) #7
  store i64 %57, ptr %59, align 8, !tbaa !31
  br label %62

60:                                               ; preds = %30, %22
  %61 = load ptr, ptr %4, align 8, !tbaa !34
  call void @_ZN2cv3Mat8copySizeERKS0_(ptr noundef nonnull align 8 dereferenceable(96) %7, ptr noundef nonnull align 8 dereferenceable(96) %61)
  br label %62

62:                                               ; preds = %60, %35
  %63 = load ptr, ptr %4, align 8, !tbaa !34
  %64 = getelementptr inbounds nuw %"class.cv::Mat", ptr %63, i32 0, i32 4
  %65 = load ptr, ptr %64, align 8, !tbaa !89
  %66 = getelementptr inbounds nuw %"class.cv::Mat", ptr %7, i32 0, i32 4
  store ptr %65, ptr %66, align 8, !tbaa !89
  %67 = load ptr, ptr %4, align 8, !tbaa !34
  %68 = getelementptr inbounds nuw %"class.cv::Mat", ptr %67, i32 0, i32 5
  %69 = load ptr, ptr %68, align 8, !tbaa !90
  %70 = getelementptr inbounds nuw %"class.cv::Mat", ptr %7, i32 0, i32 5
  store ptr %69, ptr %70, align 8, !tbaa !90
  %71 = load ptr, ptr %4, align 8, !tbaa !34
  %72 = getelementptr inbounds nuw %"class.cv::Mat", ptr %71, i32 0, i32 6
  %73 = load ptr, ptr %72, align 8, !tbaa !92
  %74 = getelementptr inbounds nuw %"class.cv::Mat", ptr %7, i32 0, i32 6
  store ptr %73, ptr %74, align 8, !tbaa !92
  %75 = load ptr, ptr %4, align 8, !tbaa !34
  %76 = getelementptr inbounds nuw %"class.cv::Mat", ptr %75, i32 0, i32 7
  %77 = load ptr, ptr %76, align 8, !tbaa !91
  %78 = getelementptr inbounds nuw %"class.cv::Mat", ptr %7, i32 0, i32 7
  store ptr %77, ptr %78, align 8, !tbaa !91
  %79 = load ptr, ptr %4, align 8, !tbaa !34
  %80 = getelementptr inbounds nuw %"class.cv::Mat", ptr %79, i32 0, i32 8
  %81 = load ptr, ptr %80, align 8, !tbaa !94
  %82 = getelementptr inbounds nuw %"class.cv::Mat", ptr %7, i32 0, i32 8
  store ptr %81, ptr %82, align 8, !tbaa !94
  %83 = load ptr, ptr %4, align 8, !tbaa !34
  %84 = getelementptr inbounds nuw %"class.cv::Mat", ptr %83, i32 0, i32 9
  %85 = load ptr, ptr %84, align 8, !tbaa !88
  %86 = getelementptr inbounds nuw %"class.cv::Mat", ptr %7, i32 0, i32 9
  store ptr %85, ptr %86, align 8, !tbaa !88
  br label %87

87:                                               ; preds = %62, %2
  ret ptr %7
}