; Function Attrs: mustprogress uwtable
define noundef nonnull align 8 dereferenceable(96) ptr @_ZN2cv3MataSERKS0_(ptr noundef nonnull returned align 8 dereferenceable(96) %0, ptr noundef nonnull readonly align 8 dereferenceable(96) %1) local_unnamed_addr #1 align 2 {
  %.not = icmp eq ptr %0, %1
  br i1 %.not, label %69, label %3

3:                                                ; preds = %2
  %4 = getelementptr inbounds nuw i8, ptr %1, i64 56
  %5 = load ptr, ptr %4, align 8, !tbaa !66
  %.not21 = icmp eq ptr %5, null
  br i1 %.not21, label %9, label %6

6:                                                ; preds = %3
  %7 = getelementptr inbounds nuw i8, ptr %5, i64 20
  %8 = atomicrmw add ptr %7, i32 1 acq_rel, align 4
  br label %9

9:                                                ; preds = %6, %3
  tail call void @_ZN2cv3Mat7releaseEv(ptr noundef nonnull align 8 dereferenceable(96) %0)
  %10 = load i32, ptr %1, align 8, !tbaa !61
  store i32 %10, ptr %0, align 8, !tbaa !61
  %11 = getelementptr inbounds nuw i8, ptr %0, i64 4
  %12 = load i32, ptr %11, align 4, !tbaa !53
  %13 = icmp slt i32 %12, 3
  %14 = getelementptr inbounds nuw i8, ptr %1, i64 4
  %15 = load i32, ptr %14, align 4, !tbaa !53
  %16 = icmp slt i32 %15, 3
  %or.cond = select i1 %13, i1 %16, i1 false
  br i1 %or.cond, label %17, label %._crit_edge

17:                                               ; preds = %9
  store i32 %15, ptr %11, align 4, !tbaa !53
  %18 = getelementptr inbounds nuw i8, ptr %1, i64 8
  %19 = load i32, ptr %18, align 8, !tbaa !60
  %20 = getelementptr inbounds nuw i8, ptr %0, i64 8
  store i32 %19, ptr %20, align 8, !tbaa !60
  %21 = getelementptr inbounds nuw i8, ptr %1, i64 12
  %22 = load i32, ptr %21, align 4, !tbaa !59
  %23 = getelementptr inbounds nuw i8, ptr %0, i64 12
  store i32 %22, ptr %23, align 4, !tbaa !59
  %24 = getelementptr inbounds nuw i8, ptr %1, i64 72
  %25 = load ptr, ptr %24, align 8, !tbaa !63
  %26 = load i64, ptr %25, align 8, !tbaa !22
  %27 = getelementptr inbounds nuw i8, ptr %0, i64 72
  %28 = load ptr, ptr %27, align 8, !tbaa !63
  store i64 %26, ptr %28, align 8, !tbaa !22
  %29 = getelementptr inbounds nuw i8, ptr %25, i64 8
  %30 = load i64, ptr %29, align 8, !tbaa !22
  %31 = getelementptr inbounds nuw i8, ptr %28, i64 8
  store i64 %30, ptr %31, align 8, !tbaa !22
  br label %_ZN2cv3Mat8copySizeERKS0_.exit

._crit_edge:                                      ; preds = %9
  tail call void @_ZN2cv7setSizeERNS_3MatEiPKiPKmb(ptr noundef nonnull align 8 dereferenceable(96) %0, i32 noundef %15, ptr noundef null, ptr noundef null, i1 noundef zeroext false)
  %32 = load i32, ptr %11, align 4, !tbaa !53
  %33 = icmp sgt i32 %32, 0
  br i1 %33, label %.lr.ph.i, label %_ZN2cv3Mat8copySizeERKS0_.exit

.lr.ph.i:                                         ; preds = %._crit_edge
  %34 = getelementptr inbounds nuw i8, ptr %1, i64 64
  %35 = load ptr, ptr %34, align 8, !tbaa !49
  %36 = getelementptr inbounds nuw i8, ptr %0, i64 64
  %37 = load ptr, ptr %36, align 8, !tbaa !49
  %38 = getelementptr inbounds nuw i8, ptr %1, i64 72
  %39 = load ptr, ptr %38, align 8, !tbaa !63
  %40 = getelementptr inbounds nuw i8, ptr %0, i64 72
  %41 = load ptr, ptr %40, align 8, !tbaa !63
  br label %42

42:                                               ; preds = %42, %.lr.ph.i
  %indvars.iv.i = phi i64 [ 0, %.lr.ph.i ], [ %indvars.iv.next.i, %42 ]
  %43 = getelementptr inbounds nuw i32, ptr %35, i64 %indvars.iv.i
  %44 = load i32, ptr %43, align 4, !tbaa !23
  %45 = getelementptr inbounds nuw i32, ptr %37, i64 %indvars.iv.i
  store i32 %44, ptr %45, align 4, !tbaa !23
  %46 = getelementptr inbounds nuw i64, ptr %39, i64 %indvars.iv.i
  %47 = load i64, ptr %46, align 8, !tbaa !22
  %48 = getelementptr inbounds nuw i64, ptr %41, i64 %indvars.iv.i
  store i64 %47, ptr %48, align 8, !tbaa !22
  %indvars.iv.next.i = add nuw nsw i64 %indvars.iv.i, 1
  %49 = load i32, ptr %11, align 4, !tbaa !53
  %50 = sext i32 %49 to i64
  %51 = icmp slt i64 %indvars.iv.next.i, %50
  br i1 %51, label %42, label %_ZN2cv3Mat8copySizeERKS0_.exit, !llvm.loop !78

_ZN2cv3Mat8copySizeERKS0_.exit:                   ; preds = %42, %._crit_edge, %17
  %52 = getelementptr inbounds nuw i8, ptr %1, i64 16
  %53 = load ptr, ptr %52, align 8, !tbaa !67
  %54 = getelementptr inbounds nuw i8, ptr %0, i64 16
  store ptr %53, ptr %54, align 8, !tbaa !67
  %55 = getelementptr inbounds nuw i8, ptr %1, i64 24
  %56 = load ptr, ptr %55, align 8, !tbaa !68
  %57 = getelementptr inbounds nuw i8, ptr %0, i64 24
  store ptr %56, ptr %57, align 8, !tbaa !68
  %58 = getelementptr inbounds nuw i8, ptr %1, i64 32
  %59 = load ptr, ptr %58, align 8, !tbaa !70
  %60 = getelementptr inbounds nuw i8, ptr %0, i64 32
  store ptr %59, ptr %60, align 8, !tbaa !70
  %61 = getelementptr inbounds nuw i8, ptr %1, i64 40
  %62 = load ptr, ptr %61, align 8, !tbaa !69
  %63 = getelementptr inbounds nuw i8, ptr %0, i64 40
  store ptr %62, ptr %63, align 8, !tbaa !69
  %64 = getelementptr inbounds nuw i8, ptr %1, i64 48
  %65 = load ptr, ptr %64, align 8, !tbaa !74
  %66 = getelementptr inbounds nuw i8, ptr %0, i64 48
  store ptr %65, ptr %66, align 8, !tbaa !74
  %67 = load ptr, ptr %4, align 8, !tbaa !66
  %68 = getelementptr inbounds nuw i8, ptr %0, i64 56
  store ptr %67, ptr %68, align 8, !tbaa !66
  br label %69

69:                                               ; preds = %_ZN2cv3Mat8copySizeERKS0_.exit, %2
  ret ptr %0
}